target datalayout = "e-m:e-p270:32:32-p271:32:32-p272:64:64-i64:64-i128:128-f80:128-n8:16:32:64-S128"
target triple = "x86_64-pc-linux-gnu"

%"struct.nanogui::Array" = type { [2 x i32] }
%"class.nanogui::RenderPass" = type <{ %"class.nanogui::Object.base", [4 x i8], %"class.std::vector.0", i8, [7 x i8], %"class.std::vector.5", float, i8, [3 x i8], %"struct.nanogui::Array", %"struct.nanogui::Array", %"struct.nanogui::Array", i32, i8, [3 x i8], i32, [4 x i8], %"class.nanogui::ref", i8, [3 x i8], i32, [4 x i32], [4 x i32], i8, i8, i8, i8, i8, [3 x i8] }>
%"class.nanogui::Object.base" = type <{ ptr, %"struct.std::atomic" }>
%"struct.std::atomic" = type { %"struct.std::__atomic_base" }
%"struct.std::__atomic_base" = type { i32 }
%"class.std::vector.0" = type { %"struct.std::_Vector_base.1" }
%"struct.std::_Vector_base.1" = type { %"struct.std::_Vector_base<nanogui::ref<nanogui::Object>, std::allocator<nanogui::ref<nanogui::Object>>>::_Vector_impl" }
%"struct.std::_Vector_base<nanogui::ref<nanogui::Object>, std::allocator<nanogui::ref<nanogui::Object>>>::_Vector_impl" = type { %"struct.std::_Vector_base<nanogui::ref<nanogui::Object>, std::allocator<nanogui::ref<nanogui::Object>>>::_Vector_impl_data" }
%"struct.std::_Vector_base<nanogui::ref<nanogui::Object>, std::allocator<nanogui::ref<nanogui::Object>>>::_Vector_impl_data" = type { ptr, ptr, ptr }
%"class.std::vector.5" = type { %"struct.std::_Vector_base.6" }
%"struct.std::_Vector_base.6" = type { %"struct.std::_Vector_base<nanogui::Color, std::allocator<nanogui::Color>>::_Vector_impl" }
%"struct.std::_Vector_base<nanogui::Color, std::allocator<nanogui::Color>>::_Vector_impl" = type { %"struct.std::_Vector_base<nanogui::Color, std::allocator<nanogui::Color>>::_Vector_impl_data" }
%"struct.std::_Vector_base<nanogui::Color, std::allocator<nanogui::Color>>::_Vector_impl_data" = type { ptr, ptr, ptr }
%"class.nanogui::ref" = type { ptr }

@_ZTISt13runtime_error = external constant ptr
@.str.10 = private unnamed_addr constant [51 x i8] c"Shader::set_depth_test(): invalid depth test mode!\00", align 1

; Function Attrs: mustprogress nounwind uwtable
define linkonce_odr hidden noundef ptr @_ZN7nanogui3refINS_6ObjectEEcvPS1_Ev(ptr noundef nonnull align 8 dereferenceable(8) %0) #1 comdat align 2 {
  %2 = alloca ptr, align 8
  store ptr %0, ptr %2, align 8
  %3 = load ptr, ptr %2, align 8
  %4 = getelementptr inbounds %"class.nanogui::ref", ptr %3, i32 0, i32 0
  %5 = load ptr, ptr %4, align 8
  ret ptr %5
}

; Function Attrs: mustprogress nounwind uwtable
define linkonce_odr hidden noundef nonnull align 8 dereferenceable(8) ptr @_ZNSt6vectorIN7nanogui3refINS0_6ObjectEEESaIS3_EEixEm(ptr noundef nonnull align 8 dereferenceable(24) %0, i64 noundef %1) #1 comdat align 2 {
  %3 = alloca ptr, align 8
  %4 = alloca i64, align 8
  store ptr %0, ptr %3, align 8
  store i64 %1, ptr %4, align 8
  %5 = load ptr, ptr %3, align 8
  %6 = getelementptr inbounds %"struct.std::_Vector_base.1", ptr %5, i32 0, i32 0
  %7 = getelementptr inbounds %"struct.std::_Vector_base<nanogui::ref<nanogui::Object>, std::allocator<nanogui::ref<nanogui::Object>>>::_Vector_impl_data", ptr %6, i32 0, i32 0
  %8 = load ptr, ptr %7, align 8
  %9 = load i64, ptr %4, align 8
  %10 = getelementptr inbounds %"class.nanogui::ref", ptr %8, i64 %9
  ret ptr %10
}

; Function Attrs: mustprogress uwtable
define hidden void @_ZN7nanogui10RenderPass14set_depth_testENS0_9DepthTestEb(ptr noundef nonnull align 8 dereferenceable(173) %0, i32 noundef %1, i1 noundef zeroext %2) #0 align 2 personality ptr @__gxx_personality_v0 {
  %4 = alloca ptr, align 8
  %5 = alloca i32, align 4
  %6 = alloca i8, align 1
  %7 = alloca i32, align 4
  %8 = alloca ptr, align 8
  %9 = alloca i32, align 4
  store ptr %0, ptr %4, align 8
  store i32 %1, ptr %5, align 4
  %10 = zext i1 %2 to i8
  store i8 %10, ptr %6, align 1
  %11 = load ptr, ptr %4, align 8
  %12 = load i32, ptr %5, align 4
  %13 = getelementptr inbounds %"class.nanogui::RenderPass", ptr %11, i32 0, i32 12
  store i32 %12, ptr %13, align 8
  %14 = load i8, ptr %6, align 1
  %15 = trunc i8 %14 to i1
  %16 = getelementptr inbounds %"class.nanogui::RenderPass", ptr %11, i32 0, i32 13
  %17 = zext i1 %15 to i8
  store i8 %17, ptr %16, align 4
  %18 = getelementptr inbounds %"class.nanogui::RenderPass", ptr %11, i32 0, i32 18
  %19 = load i8, ptr %18, align 8
  %20 = trunc i8 %19 to i1
  br i1 %20, label %21, label %53

21:                                               ; preds = %3
  %22 = getelementptr inbounds %"class.nanogui::RenderPass", ptr %11, i32 0, i32 2
  %23 = call noundef nonnull align 8 dereferenceable(8) ptr @_ZNSt6vectorIN7nanogui3refINS0_6ObjectEEESaIS3_EEixEm(ptr noundef nonnull align 8 dereferenceable(24) %22, i64 noundef 0) #12
  %24 = call noundef ptr @_ZN7nanogui3refINS_6ObjectEEcvPS1_Ev(ptr noundef nonnull align 8 dereferenceable(8) %23)
  %25 = icmp ne ptr %24, null
  br i1 %25, label %26, label %47

26:                                               ; preds = %21
  %27 = load i32, ptr %5, align 4
  %28 = icmp ne i32 %27, 7
  br i1 %28, label %29, label %47

29:                                               ; preds = %26
  %30 = load i32, ptr %5, align 4
  switch i32 %30, label %38 [
    i32 0, label %31
    i32 1, label %32
    i32 2, label %33
    i32 3, label %34
    i32 4, label %35
    i32 5, label %36
    i32 6, label %37
  ]

31:                                               ; preds = %29
  store i32 512, ptr %7, align 4
  br label %45

32:                                               ; preds = %29
  store i32 513, ptr %7, align 4
  br label %45

33:                                               ; preds = %29
  store i32 514, ptr %7, align 4
  br label %45

34:                                               ; preds = %29
  store i32 515, ptr %7, align 4
  br label %45

35:                                               ; preds = %29
  store i32 516, ptr %7, align 4
  br label %45

36:                                               ; preds = %29
  store i32 517, ptr %7, align 4
  br label %45

37:                                               ; preds = %29
  store i32 518, ptr %7, align 4
  br label %45

38:                                               ; preds = %29
  %39 = call ptr @__cxa_allocate_exception(i64 16) #12
  invoke void @_ZNSt13runtime_errorC1EPKc(ptr noundef nonnull align 8 dereferenceable(16) %39, ptr noundef @.str.10)
          to label %40 unwind label %41

40:                                               ; preds = %38
  call void @__cxa_throw(ptr %39, ptr @_ZTISt13runtime_error, ptr @_ZNSt13runtime_errorD1Ev) #13
  unreachable

41:                                               ; preds = %38
  %42 = landingpad { ptr, i32 }
          cleanup
  %43 = extractvalue { ptr, i32 } %42, 0
  store ptr %43, ptr %8, align 8
  %44 = extractvalue { ptr, i32 } %42, 1
  store i32 %44, ptr %9, align 4
  call void @__cxa_free_exception(ptr %39) #12
  br label %54

45:                                               ; preds = %37, %36, %35, %34, %33, %32, %31
  call void @glEnable(i32 noundef 2929)
  %46 = load i32, ptr %7, align 4
  call void @glDepthFunc(i32 noundef %46)
  br label %48

47:                                               ; preds = %26, %21
  call void @glDisable(i32 noundef 2929)
  br label %48

48:                                               ; preds = %47, %45
  %49 = load i8, ptr %6, align 1
  %50 = trunc i8 %49 to i1
  %51 = select i1 %50, i32 1, i32 0
  %52 = trunc i32 %51 to i8
  call void @glDepthMask(i8 noundef zeroext %52)
  br label %53

53:                                               ; preds = %48, %3
  ret void

54:                                               ; preds = %41
  %55 = load ptr, ptr %8, align 8
  %56 = load i32, ptr %9, align 4
  %57 = insertvalue { ptr, i32 } poison, ptr %55, 0
  %58 = insertvalue { ptr, i32 } %57, i32 %56, 1
  resume { ptr, i32 } %58
}