; Function Attrs: mustprogress uwtable
define hidden void @_ZN7nanogui10RenderPass14set_depth_testENS0_9DepthTestEb(ptr nocapture noundef nonnull align 8 dereferenceable(173) %0, i32 noundef %1, i1 noundef zeroext %2) local_unnamed_addr #5 align 2 personality ptr @__gxx_personality_v0 {
  %4 = zext i1 %2 to i8
  %5 = getelementptr inbounds i8, ptr %0, i64 104
  store i32 %1, ptr %5, align 8
  %6 = getelementptr inbounds i8, ptr %0, i64 108
  store i8 %4, ptr %6, align 4
  %7 = getelementptr inbounds i8, ptr %0, i64 128
  %8 = load i8, ptr %7, align 8
  %9 = and i8 %8, 1
  %.not = icmp eq i8 %9, 0
  br i1 %.not, label %25, label %10

10:                                               ; preds = %3
  %11 = getelementptr inbounds i8, ptr %0, i64 16
  %12 = load ptr, ptr %11, align 8
  %13 = load ptr, ptr %12, align 8
  %14 = icmp ne ptr %13, null
  %15 = icmp ne i32 %1, 7
  %or.cond = and i1 %15, %14
  br i1 %or.cond, label %16, label %23

16:                                               ; preds = %10
  %17 = icmp ult i32 %1, 7
  br i1 %17, label %switch.lookup, label %18

18:                                               ; preds = %16
  %19 = tail call ptr @__cxa_allocate_exception(i64 16) #18
  invoke void @_ZNSt13runtime_errorC1EPKc(ptr noundef nonnull align 8 dereferenceable(16) %19, ptr noundef nonnull @.str.10)
          to label %20 unwind label %21

20:                                               ; preds = %18
  tail call void @__cxa_throw(ptr nonnull %19, ptr nonnull @_ZTISt13runtime_error, ptr nonnull @_ZNSt13runtime_errorD1Ev) #16
  unreachable

21:                                               ; preds = %18
  %22 = landingpad { ptr, i32 }
          cleanup
  tail call void @__cxa_free_exception(ptr %19) #18
  resume { ptr, i32 } %22

switch.lookup:                                    ; preds = %16
  %switch.offset = or disjoint i32 %1, 512
  tail call void @glEnable(i32 noundef 2929)
  tail call void @glDepthFunc(i32 noundef %switch.offset)
  br label %24

23:                                               ; preds = %10
  tail call void @glDisable(i32 noundef 2929)
  br label %24

24:                                               ; preds = %23, %switch.lookup
  tail call void @glDepthMask(i8 noundef zeroext %4)
  br label %25

25:                                               ; preds = %24, %3
  ret void
}